; Function Attrs: nounwind sspstrong uwtable
define internal i64 @ossl_pkey_oid(i64 noundef %0) #0 {
  %2 = tail call ptr @rb_check_typeddata(i64 noundef %0, ptr noundef nonnull @ossl_evp_pkey_type) #8
  %.not = icmp eq ptr %2, null
  br i1 %.not, label %3, label %5

3:                                                ; preds = %1
  %4 = load i64, ptr @rb_eRuntimeError, align 8, !tbaa !10
  tail call void (i64, ptr, ...) @rb_raise(i64 noundef %4, ptr noundef nonnull @.str.4) #9
  unreachable

5:                                                ; preds = %1
  %6 = tail call i32 @EVP_PKEY_get_id(ptr noundef nonnull %2) #8
  %7 = tail call ptr @OBJ_nid2sn(i32 noundef %6) #8
  %8 = tail call i64 @rb_str_new_cstr(ptr noundef %7) #8
  ret i64 %8
}